target datalayout = "e-m:e-p270:32:32-p271:32:32-p272:64:64-i64:64-i128:128-f80:128-n8:16:32:64-S128"
target triple = "x86_64-pc-linux-gnu"

%class.CodeInstaller = type <{ %class.Arena, ptr, i32, %class.CodeOffsets, i32, i32, i32, i32, i32, i32, i8, i8, [2 x i8], i32, [4 x i8], ptr, ptr, ptr, ptr, ptr, ptr, %class.ExceptionHandlerTable, %class.ImplicitExceptionTable, i8, [7 x i8] }>
%class.Arena = type { i8, i8, i64, ptr, ptr, ptr, ptr }
%class.CodeOffsets = type { [8 x i32] }
%class.ExceptionHandlerTable = type <{ ptr, i32, i32, %class.ReallocMark, [7 x i8] }>
%class.ReallocMark = type { i8 }
%class.ImplicitExceptionTable = type <{ i32, i32, ptr, %class.ReallocMark, [7 x i8] }>
%class.RelocationHolder = type { [40 x i8] }
%class.Relocation = type <{ ptr, ptr, i32, [4 x i8] }>

@_ZTV10Relocation = external unnamed_addr constant { [11 x ptr] }, align 8
@_ZTV18barrier_Relocation = external unnamed_addr constant { [11 x ptr] }, align 8

; Function Attrs: mustprogress nounwind uwtable
define linkonce_odr hidden void @_ZN10RelocationC2EN9relocInfo9relocTypeE(ptr noundef nonnull align 8 dereferenceable(20) %0, i32 noundef %1) unnamed_addr #1 comdat align 2 {
  %3 = alloca ptr, align 8
  %4 = alloca i32, align 4
  store ptr %0, ptr %3, align 8
  store i32 %1, ptr %4, align 4
  %5 = load ptr, ptr %3, align 8
  store ptr getelementptr inbounds inrange(-16, 72) ({ [11 x ptr] }, ptr @_ZTV10Relocation, i32 0, i32 0, i32 2), ptr %5, align 8
  %6 = getelementptr inbounds %class.Relocation, ptr %5, i32 0, i32 1
  store ptr null, ptr %6, align 8
  %7 = getelementptr inbounds %class.Relocation, ptr %5, i32 0, i32 2
  %8 = load i32, ptr %4, align 4
  store i32 %8, ptr %7, align 8
  ret void
}

; Function Attrs: mustprogress nounwind uwtable
define linkonce_odr hidden void @_ZN18barrier_RelocationC2Ev(ptr noundef nonnull align 8 dereferenceable(20) %0) unnamed_addr #1 comdat align 2 {
  %2 = alloca ptr, align 8
  store ptr %0, ptr %2, align 8
  %3 = load ptr, ptr %2, align 8
  call void @_ZN10RelocationC2EN9relocInfo9relocTypeE(ptr noundef nonnull align 8 dereferenceable(20) %3, i32 noundef 18)
  store ptr getelementptr inbounds inrange(-16, 72) ({ [11 x ptr] }, ptr @_ZTV18barrier_Relocation, i32 0, i32 0, i32 2), ptr %3, align 8
  ret void
}

; Function Attrs: mustprogress nounwind uwtable
define linkonce_odr hidden void @_ZN16RelocationHolder18emplace_relocationI18barrier_RelocationJEEEvDpRKT0_(ptr noundef nonnull align 8 dereferenceable(40) %0) #1 comdat align 2 {
  %2 = alloca ptr, align 8
  %3 = alloca ptr, align 8
  store ptr %0, ptr %2, align 8
  %4 = load ptr, ptr %2, align 8
  %5 = getelementptr inbounds %class.RelocationHolder, ptr %4, i32 0, i32 0
  %6 = getelementptr inbounds [40 x i8], ptr %5, i64 0, i64 0
  call void @_ZN18barrier_RelocationC2Ev(ptr noundef nonnull align 8 dereferenceable(20) %6)
  store ptr %6, ptr %3, align 8
  ret void
}

; Function Attrs: mustprogress nounwind uwtable
define linkonce_odr hidden void @_ZN16RelocationHolderC2I18barrier_RelocationJEEENS_9ConstructIT_EEDpRKT0_(ptr noundef nonnull align 8 dereferenceable(40) %0) unnamed_addr #1 comdat align 2 {
  %2 = alloca ptr, align 8
  store ptr %0, ptr %2, align 8
  %3 = load ptr, ptr %2, align 8
  call void @_ZN16RelocationHolder18emplace_relocationI18barrier_RelocationJEEEvDpRKT0_(ptr noundef nonnull align 8 dereferenceable(40) %3)
  ret void
}

; Function Attrs: mustprogress nounwind uwtable
define linkonce_odr hidden void @_ZN16RelocationHolder9constructI18barrier_RelocationJEEES_DpRKT0_(ptr dead_on_unwind noalias writable sret(%class.RelocationHolder) align 8 %0) #1 comdat align 2 {
  %2 = alloca ptr, align 8
  store ptr %0, ptr %2, align 8
  call void @_ZN16RelocationHolderC2I18barrier_RelocationJEEENS_9ConstructIT_EEDpRKT0_(ptr noundef nonnull align 8 dereferenceable(40) %0)
  ret void
}

; Function Attrs: mustprogress nounwind uwtable
define linkonce_odr hidden void @_ZN18barrier_Relocation4specEv(ptr dead_on_unwind noalias writable sret(%class.RelocationHolder) align 8 %0) #1 comdat align 2 {
  %2 = alloca ptr, align 8
  store ptr %0, ptr %2, align 8
  call void @_ZN16RelocationHolder9constructI18barrier_RelocationJEEES_DpRKT0_(ptr dead_on_unwind writable sret(%class.RelocationHolder) align 8 %0)
  ret void
}

; Function Attrs: mustprogress nounwind uwtable
define hidden noundef zeroext i1 @_ZN13CodeInstaller11pd_relocateEPhi(ptr noundef nonnull align 8 dereferenceable(225) %0, ptr noundef %1, i32 noundef %2) #1 align 2 {
  %4 = alloca i1, align 1
  %5 = alloca ptr, align 8
  %6 = alloca ptr, align 8
  %7 = alloca i32, align 4
  %8 = alloca %class.RelocationHolder, align 8
  %9 = alloca %class.RelocationHolder, align 8
  %10 = alloca %class.RelocationHolder, align 8
  %11 = alloca %class.RelocationHolder, align 8
  %12 = alloca %class.RelocationHolder, align 8
  %13 = alloca %class.RelocationHolder, align 8
  %14 = alloca %class.RelocationHolder, align 8
  store ptr %0, ptr %5, align 8
  store ptr %1, ptr %6, align 8
  store i32 %2, ptr %7, align 4
  %15 = load ptr, ptr %5, align 8
  %16 = load i32, ptr %7, align 4
  switch i32 %16, label %53 [
    i32 13, label %17
    i32 15, label %17
    i32 14, label %21
    i32 16, label %21
    i32 31, label %25
    i32 32, label %29
    i32 33, label %33
    i32 34, label %37
    i32 35, label %41
    i32 36, label %45
    i32 37, label %49
  ]

17:                                               ; preds = %3, %3
  %18 = getelementptr inbounds %class.CodeInstaller, ptr %15, i32 0, i32 16
  %19 = load ptr, ptr %18, align 8
  %20 = load ptr, ptr %6, align 8
  call void @_ZN11CodeSection8relocateEPhN9relocInfo9relocTypeEii(ptr noundef nonnull align 8 dereferenceable(88) %19, ptr noundef %20, i32 noundef 10, i32 noundef 0, i32 noundef 0)
  store i1 true, ptr %4, align 1
  br label %54

21:                                               ; preds = %3, %3
  %22 = getelementptr inbounds %class.CodeInstaller, ptr %15, i32 0, i32 16
  %23 = load ptr, ptr %22, align 8
  %24 = load ptr, ptr %6, align 8
  call void @_ZN11CodeSection8relocateEPhN9relocInfo9relocTypeEii(ptr noundef nonnull align 8 dereferenceable(88) %23, ptr noundef %24, i32 noundef 11, i32 noundef 0, i32 noundef 0)
  store i1 true, ptr %4, align 1
  br label %54

25:                                               ; preds = %3
  %26 = getelementptr inbounds %class.CodeInstaller, ptr %15, i32 0, i32 16
  %27 = load ptr, ptr %26, align 8
  %28 = load ptr, ptr %6, align 8
  call void @_ZN18barrier_Relocation4specEv(ptr dead_on_unwind writable sret(%class.RelocationHolder) align 8 %8)
  call void @_ZN11CodeSection8relocateEPhRK16RelocationHolderi(ptr noundef nonnull align 8 dereferenceable(88) %27, ptr noundef %28, ptr noundef nonnull align 8 dereferenceable(40) %8, i32 noundef 0)
  store i1 true, ptr %4, align 1
  br label %54

29:                                               ; preds = %3
  %30 = getelementptr inbounds %class.CodeInstaller, ptr %15, i32 0, i32 16
  %31 = load ptr, ptr %30, align 8
  %32 = load ptr, ptr %6, align 8
  call void @_ZN18barrier_Relocation4specEv(ptr dead_on_unwind writable sret(%class.RelocationHolder) align 8 %9)
  call void @_ZN11CodeSection8relocateEPhRK16RelocationHolderi(ptr noundef nonnull align 8 dereferenceable(88) %31, ptr noundef %32, ptr noundef nonnull align 8 dereferenceable(40) %9, i32 noundef 1)
  store i1 true, ptr %4, align 1
  br label %54

33:                                               ; preds = %3
  %34 = getelementptr inbounds %class.CodeInstaller, ptr %15, i32 0, i32 16
  %35 = load ptr, ptr %34, align 8
  %36 = load ptr, ptr %6, align 8
  call void @_ZN18barrier_Relocation4specEv(ptr dead_on_unwind writable sret(%class.RelocationHolder) align 8 %10)
  call void @_ZN11CodeSection8relocateEPhRK16RelocationHolderi(ptr noundef nonnull align 8 dereferenceable(88) %35, ptr noundef %36, ptr noundef nonnull align 8 dereferenceable(40) %10, i32 noundef 2)
  store i1 true, ptr %4, align 1
  br label %54

37:                                               ; preds = %3
  %38 = getelementptr inbounds %class.CodeInstaller, ptr %15, i32 0, i32 16
  %39 = load ptr, ptr %38, align 8
  %40 = load ptr, ptr %6, align 8
  call void @_ZN18barrier_Relocation4specEv(ptr dead_on_unwind writable sret(%class.RelocationHolder) align 8 %11)
  call void @_ZN11CodeSection8relocateEPhRK16RelocationHolderi(ptr noundef nonnull align 8 dereferenceable(88) %39, ptr noundef %40, ptr noundef nonnull align 8 dereferenceable(40) %11, i32 noundef 3)
  store i1 true, ptr %4, align 1
  br label %54

41:                                               ; preds = %3
  %42 = getelementptr inbounds %class.CodeInstaller, ptr %15, i32 0, i32 16
  %43 = load ptr, ptr %42, align 8
  %44 = load ptr, ptr %6, align 8
  call void @_ZN18barrier_Relocation4specEv(ptr dead_on_unwind writable sret(%class.RelocationHolder) align 8 %12)
  call void @_ZN11CodeSection8relocateEPhRK16RelocationHolderi(ptr noundef nonnull align 8 dereferenceable(88) %43, ptr noundef %44, ptr noundef nonnull align 8 dereferenceable(40) %12, i32 noundef 4)
  store i1 true, ptr %4, align 1
  br label %54

45:                                               ; preds = %3
  %46 = getelementptr inbounds %class.CodeInstaller, ptr %15, i32 0, i32 16
  %47 = load ptr, ptr %46, align 8
  %48 = load ptr, ptr %6, align 8
  call void @_ZN18barrier_Relocation4specEv(ptr dead_on_unwind writable sret(%class.RelocationHolder) align 8 %13)
  call void @_ZN11CodeSection8relocateEPhRK16RelocationHolderi(ptr noundef nonnull align 8 dereferenceable(88) %47, ptr noundef %48, ptr noundef nonnull align 8 dereferenceable(40) %13, i32 noundef 5)
  store i1 true, ptr %4, align 1
  br label %54

49:                                               ; preds = %3
  %50 = getelementptr inbounds %class.CodeInstaller, ptr %15, i32 0, i32 16
  %51 = load ptr, ptr %50, align 8
  %52 = load ptr, ptr %6, align 8
  call void @_ZN18barrier_Relocation4specEv(ptr dead_on_unwind writable sret(%class.RelocationHolder) align 8 %14)
  call void @_ZN11CodeSection8relocateEPhRK16RelocationHolderi(ptr noundef nonnull align 8 dereferenceable(88) %51, ptr noundef %52, ptr noundef nonnull align 8 dereferenceable(40) %14, i32 noundef 6)
  store i1 true, ptr %4, align 1
  br label %54

53:                                               ; preds = %3
  store i1 false, ptr %4, align 1
  br label %54

54:                                               ; preds = %53, %49, %45, %41, %37, %33, %29, %25, %21, %17
  %55 = load i1, ptr %4, align 1
  ret i1 %55
}