; Function Attrs: mustprogress nounwind uwtable
define hidden noundef zeroext i1 @_ZN13CodeInstaller11pd_relocateEPhi(ptr nocapture noundef nonnull readonly align 8 dereferenceable(225) %0, ptr noundef %1, i32 noundef %2) local_unnamed_addr #0 align 2 {
  %4 = alloca %class.RelocationHolder, align 8
  %5 = alloca %class.RelocationHolder, align 8
  %6 = alloca %class.RelocationHolder, align 8
  %7 = alloca %class.RelocationHolder, align 8
  %8 = alloca %class.RelocationHolder, align 8
  %9 = alloca %class.RelocationHolder, align 8
  %10 = alloca %class.RelocationHolder, align 8
  switch i32 %2, label %52 [
    i32 13, label %11
    i32 15, label %11
    i32 14, label %14
    i32 16, label %14
    i32 31, label %17
    i32 32, label %22
    i32 33, label %27
    i32 34, label %32
    i32 35, label %37
    i32 36, label %42
    i32 37, label %47
  ]

11:                                               ; preds = %3, %3
  %12 = getelementptr inbounds i8, ptr %0, i64 136
  %13 = load ptr, ptr %12, align 8
  tail call void @_ZN11CodeSection8relocateEPhN9relocInfo9relocTypeEii(ptr noundef nonnull align 8 dereferenceable(88) %13, ptr noundef %1, i32 noundef 10, i32 noundef 0, i32 noundef 0) #5
  br label %52

14:                                               ; preds = %3, %3
  %15 = getelementptr inbounds i8, ptr %0, i64 136
  %16 = load ptr, ptr %15, align 8
  tail call void @_ZN11CodeSection8relocateEPhN9relocInfo9relocTypeEii(ptr noundef nonnull align 8 dereferenceable(88) %16, ptr noundef %1, i32 noundef 11, i32 noundef 0, i32 noundef 0) #5
  br label %52

17:                                               ; preds = %3
  %18 = getelementptr inbounds i8, ptr %0, i64 136
  %19 = load ptr, ptr %18, align 8
  %20 = getelementptr inbounds i8, ptr %4, i64 8
  store ptr null, ptr %20, align 8, !alias.scope !46
  %21 = getelementptr inbounds i8, ptr %4, i64 16
  store i32 18, ptr %21, align 8, !alias.scope !46
  store ptr getelementptr inbounds inrange(-16, 72) (i8, ptr @_ZTV18barrier_Relocation, i64 16), ptr %4, align 8, !alias.scope !46
  call void @_ZN11CodeSection8relocateEPhRK16RelocationHolderi(ptr noundef nonnull align 8 dereferenceable(88) %19, ptr noundef %1, ptr noundef nonnull align 8 dereferenceable(40) %4, i32 noundef 0) #5
  br label %52

22:                                               ; preds = %3
  %23 = getelementptr inbounds i8, ptr %0, i64 136
  %24 = load ptr, ptr %23, align 8
  %25 = getelementptr inbounds i8, ptr %5, i64 8
  store ptr null, ptr %25, align 8, !alias.scope !51
  %26 = getelementptr inbounds i8, ptr %5, i64 16
  store i32 18, ptr %26, align 8, !alias.scope !51
  store ptr getelementptr inbounds inrange(-16, 72) (i8, ptr @_ZTV18barrier_Relocation, i64 16), ptr %5, align 8, !alias.scope !51
  call void @_ZN11CodeSection8relocateEPhRK16RelocationHolderi(ptr noundef nonnull align 8 dereferenceable(88) %24, ptr noundef %1, ptr noundef nonnull align 8 dereferenceable(40) %5, i32 noundef 1) #5
  br label %52

27:                                               ; preds = %3
  %28 = getelementptr inbounds i8, ptr %0, i64 136
  %29 = load ptr, ptr %28, align 8
  %30 = getelementptr inbounds i8, ptr %6, i64 8
  store ptr null, ptr %30, align 8, !alias.scope !56
  %31 = getelementptr inbounds i8, ptr %6, i64 16
  store i32 18, ptr %31, align 8, !alias.scope !56
  store ptr getelementptr inbounds inrange(-16, 72) (i8, ptr @_ZTV18barrier_Relocation, i64 16), ptr %6, align 8, !alias.scope !56
  call void @_ZN11CodeSection8relocateEPhRK16RelocationHolderi(ptr noundef nonnull align 8 dereferenceable(88) %29, ptr noundef %1, ptr noundef nonnull align 8 dereferenceable(40) %6, i32 noundef 2) #5
  br label %52

32:                                               ; preds = %3
  %33 = getelementptr inbounds i8, ptr %0, i64 136
  %34 = load ptr, ptr %33, align 8
  %35 = getelementptr inbounds i8, ptr %7, i64 8
  store ptr null, ptr %35, align 8, !alias.scope !61
  %36 = getelementptr inbounds i8, ptr %7, i64 16
  store i32 18, ptr %36, align 8, !alias.scope !61
  store ptr getelementptr inbounds inrange(-16, 72) (i8, ptr @_ZTV18barrier_Relocation, i64 16), ptr %7, align 8, !alias.scope !61
  call void @_ZN11CodeSection8relocateEPhRK16RelocationHolderi(ptr noundef nonnull align 8 dereferenceable(88) %34, ptr noundef %1, ptr noundef nonnull align 8 dereferenceable(40) %7, i32 noundef 3) #5
  br label %52

37:                                               ; preds = %3
  %38 = getelementptr inbounds i8, ptr %0, i64 136
  %39 = load ptr, ptr %38, align 8
  %40 = getelementptr inbounds i8, ptr %8, i64 8
  store ptr null, ptr %40, align 8, !alias.scope !66
  %41 = getelementptr inbounds i8, ptr %8, i64 16
  store i32 18, ptr %41, align 8, !alias.scope !66
  store ptr getelementptr inbounds inrange(-16, 72) (i8, ptr @_ZTV18barrier_Relocation, i64 16), ptr %8, align 8, !alias.scope !66
  call void @_ZN11CodeSection8relocateEPhRK16RelocationHolderi(ptr noundef nonnull align 8 dereferenceable(88) %39, ptr noundef %1, ptr noundef nonnull align 8 dereferenceable(40) %8, i32 noundef 4) #5
  br label %52

42:                                               ; preds = %3
  %43 = getelementptr inbounds i8, ptr %0, i64 136
  %44 = load ptr, ptr %43, align 8
  %45 = getelementptr inbounds i8, ptr %9, i64 8
  store ptr null, ptr %45, align 8, !alias.scope !71
  %46 = getelementptr inbounds i8, ptr %9, i64 16
  store i32 18, ptr %46, align 8, !alias.scope !71
  store ptr getelementptr inbounds inrange(-16, 72) (i8, ptr @_ZTV18barrier_Relocation, i64 16), ptr %9, align 8, !alias.scope !71
  call void @_ZN11CodeSection8relocateEPhRK16RelocationHolderi(ptr noundef nonnull align 8 dereferenceable(88) %44, ptr noundef %1, ptr noundef nonnull align 8 dereferenceable(40) %9, i32 noundef 5) #5
  br label %52

47:                                               ; preds = %3
  %48 = getelementptr inbounds i8, ptr %0, i64 136
  %49 = load ptr, ptr %48, align 8
  %50 = getelementptr inbounds i8, ptr %10, i64 8
  store ptr null, ptr %50, align 8, !alias.scope !76
  %51 = getelementptr inbounds i8, ptr %10, i64 16
  store i32 18, ptr %51, align 8, !alias.scope !76
  store ptr getelementptr inbounds inrange(-16, 72) (i8, ptr @_ZTV18barrier_Relocation, i64 16), ptr %10, align 8, !alias.scope !76
  call void @_ZN11CodeSection8relocateEPhRK16RelocationHolderi(ptr noundef nonnull align 8 dereferenceable(88) %49, ptr noundef %1, ptr noundef nonnull align 8 dereferenceable(40) %10, i32 noundef 6) #5
  br label %52

52:                                               ; preds = %3, %47, %42, %37, %32, %27, %22, %17, %14, %11
  %.0 = phi i1 [ true, %47 ], [ true, %42 ], [ true, %37 ], [ true, %32 ], [ true, %27 ], [ true, %22 ], [ true, %17 ], [ true, %14 ], [ true, %11 ], [ false, %3 ]
  ret i1 %.0
}